target datalayout = "e-m:e-p270:32:32-p271:32:32-p272:64:64-i64:64-i128:128-f80:128-n8:16:32:64-S128"
target triple = "x86_64-unknown-linux-gnu"

%"union.std::aligned_storage<32, 16>::type" = type { [32 x i8] }
%"class.proxygen::RequestWorkerThreadNoExecutor" = type { %"class.proxygen::WorkerThread", i64, %"class.folly::F14ValueMap", %"class.std::shared_ptr", ptr }
%"class.proxygen::WorkerThread" = type { ptr, i8, %"class.std::thread", %"class.std::mutex", ptr, %"class.std::unique_ptr" }
%"class.std::thread" = type { %"class.std::thread::id" }
%"class.std::thread::id" = type { i64 }
%"class.std::mutex" = type { %"class.std::__mutex_base" }
%"class.std::__mutex_base" = type { %union.pthread_mutex_t }
%union.pthread_mutex_t = type { %struct.__pthread_mutex_s }
%struct.__pthread_mutex_s = type { i32, i32, i32, i32, i32, i16, i16, %struct.__pthread_internal_list }
%struct.__pthread_internal_list = type { ptr, ptr }
%"class.std::unique_ptr" = type { %"struct.std::__uniq_ptr_data" }
%"struct.std::__uniq_ptr_data" = type { %"class.std::__uniq_ptr_impl" }
%"class.std::__uniq_ptr_impl" = type { %"class.std::tuple" }
%"class.std::tuple" = type { %"struct.std::_Tuple_impl" }
%"struct.std::_Tuple_impl" = type { %"struct.std::_Head_base.1" }
%"struct.std::_Head_base.1" = type { ptr }
%"class.folly::F14ValueMap" = type { %"class.folly::f14::detail::F14BasicMap" }
%"class.folly::f14::detail::F14BasicMap" = type { %"class.folly::f14::detail::F14Table" }
%"class.folly::f14::detail::F14Table" = type { ptr, %"struct.folly::f14::detail::SizeAndChunkShiftAndPackedBegin" }
%"struct.folly::f14::detail::SizeAndChunkShiftAndPackedBegin" = type { %"struct.folly::f14::detail::PackedSizeAndChunkShift", %"class.folly::f14::detail::PackedChunkItemPtr" }
%"struct.folly::f14::detail::PackedSizeAndChunkShift" = type { i64 }
%"class.folly::f14::detail::PackedChunkItemPtr" = type { i64 }
%"class.std::shared_ptr" = type { %"class.std::__shared_ptr" }
%"class.std::__shared_ptr" = type { ptr, %"class.std::__shared_count" }
%"class.std::__shared_count" = type { ptr }
%"class.folly::f14::detail::F14ItemIter" = type { ptr, i64 }
%"struct.folly::HeterogeneousAccessHash" = type { i8 }
%"struct.folly::HeterogeneousAccessEqualTo" = type { i8 }
%"class.std::allocator" = type { i8 }

@_ZN5folly3f146detail15kEmptyTagVectorE = external global %"union.std::aligned_storage<32, 16>::type", align 16

; Function Attrs: mustprogress nounwind uwtable
define linkonce_odr void @_ZNSt15__new_allocatorISt4pairIKPN8proxygen7ServiceEPNS1_13ServiceWorkerEEEC2ERKS8_(ptr noundef nonnull align 1 dereferenceable(1) %this, ptr noundef nonnull align 1 dereferenceable(1) %0) unnamed_addr #1 comdat align 2 {
entry:
  %this.addr = alloca ptr, align 8
  %.addr = alloca ptr, align 8
  store ptr %this, ptr %this.addr, align 8
  store ptr %0, ptr %.addr, align 8
  ret void
}

; Function Attrs: mustprogress nounwind uwtable
define linkonce_odr void @_ZNSaISt4pairIKPN8proxygen7ServiceEPNS0_13ServiceWorkerEEEC2ERKS7_(ptr noundef nonnull align 1 dereferenceable(1) %this, ptr noundef nonnull align 1 dereferenceable(1) %__a) unnamed_addr #1 comdat align 2 {
entry:
  %this.addr = alloca ptr, align 8
  %__a.addr = alloca ptr, align 8
  store ptr %this, ptr %this.addr, align 8
  store ptr %__a, ptr %__a.addr, align 8
  %this1 = load ptr, ptr %this.addr, align 8
  %0 = load ptr, ptr %__a.addr, align 8
  call void @_ZNSt15__new_allocatorISt4pairIKPN8proxygen7ServiceEPNS1_13ServiceWorkerEEEC2ERKS8_(ptr noundef nonnull align 1 dereferenceable(1) %this1, ptr noundef nonnull align 1 dereferenceable(1) %0) #20
  ret void
}

; Function Attrs: mustprogress nounwind uwtable
define linkonce_odr void @_ZN5folly3f146detail18PackedChunkItemPtrIPSt4pairIKPN8proxygen7ServiceEPNS4_13ServiceWorkerEEEC2ESB_m(ptr noundef nonnull align 8 dereferenceable(8) %this, ptr noundef %p, i64 noundef %i) unnamed_addr #1 comdat align 2 personality ptr @__gxx_personality_v0 {
entry:
  %cond.addr.i5 = alloca i8, align 1
  %cond.addr.i = alloca i8, align 1
  %this.addr = alloca ptr, align 8
  %p.addr = alloca ptr, align 8
  %i.addr = alloca i64, align 8
  %encoded = alloca i64, align 8
  store ptr %this, ptr %this.addr, align 8
  store ptr %p, ptr %p.addr, align 8
  store i64 %i, ptr %i.addr, align 8
  %this1 = load ptr, ptr %this.addr, align 8
  %0 = load i64, ptr %i.addr, align 8
  %shr = lshr i64 %0, 0
  store i64 %shr, ptr %encoded, align 8
  %1 = load i64, ptr %encoded, align 8
  %and = and i64 %1, -16
  %cmp = icmp eq i64 %and, 0
  %frombool.i = zext i1 %cmp to i8
  store i8 %frombool.i, ptr %cond.addr.i, align 1
  %2 = load i8, ptr %cond.addr.i, align 1
  %tobool.i = trunc i8 %2 to i1
  %frombool.i6 = zext i1 %tobool.i to i8
  store i8 %frombool.i6, ptr %cond.addr.i5, align 1
  %3 = load i8, ptr %cond.addr.i5, align 1
  %tobool.i7 = trunc i8 %3 to i1
  call void @llvm.assume(i1 %tobool.i7)
  br label %invoke.cont

invoke.cont:                                      ; preds = %entry
  %4 = load ptr, ptr %p.addr, align 8
  %5 = ptrtoint ptr %4 to i64
  %6 = load i64, ptr %encoded, align 8
  %or = or i64 %5, %6
  %raw_ = getelementptr inbounds %"class.folly::f14::detail::PackedChunkItemPtr", ptr %this1, i32 0, i32 0
  store i64 %or, ptr %raw_, align 8
  br label %do.body

do.body:                                          ; preds = %invoke.cont
  br label %do.cond

do.cond:                                          ; preds = %do.body
  br label %do.end

do.end:                                           ; preds = %do.cond
  br label %do.body2

do.body2:                                         ; preds = %do.end
  br label %do.cond3

do.cond3:                                         ; preds = %do.body2
  br label %do.end4

do.end4:                                          ; preds = %do.cond3
  ret void

terminate.lpad:                                   ; No predecessors!
  %7 = landingpad { ptr, i32 }
          catch ptr null
  %8 = extractvalue { ptr, i32 } %7, 0
  call void @__clang_call_terminate(ptr %8) #21
  unreachable
}

; Function Attrs: mustprogress nounwind uwtable
define linkonce_odr void @_ZN5folly3f146detail12ObjectHolderILc65ESaISt4pairIKPN8proxygen7ServiceEPNS4_13ServiceWorkerEEELb1EEC2IJRKSB_EEEDpOT_(ptr noundef nonnull align 1 dereferenceable(1) %this, ptr noundef nonnull align 1 dereferenceable(1) %args) unnamed_addr #1 comdat align 2 {
entry:
  %this.addr = alloca ptr, align 8
  %args.addr = alloca ptr, align 8
  store ptr %this, ptr %this.addr, align 8
  store ptr %args, ptr %args.addr, align 8
  %this1 = load ptr, ptr %this.addr, align 8
  %0 = load ptr, ptr %args.addr, align 8
  call void @_ZNSaISt4pairIKPN8proxygen7ServiceEPNS0_13ServiceWorkerEEEC2ERKS7_(ptr noundef nonnull align 1 dereferenceable(1) %this1, ptr noundef nonnull align 1 dereferenceable(1) %0) #20
  ret void
}

; Function Attrs: mustprogress nounwind uwtable
define linkonce_odr void @_ZN5folly3f146detail12ObjectHolderILc69ENS_26HeterogeneousAccessEqualToIPN8proxygen7ServiceEvEELb1EEC2IJRKS7_EEEDpOT_(ptr noundef nonnull align 1 dereferenceable(1) %this, ptr noundef nonnull align 1 dereferenceable(1) %args) unnamed_addr #1 comdat align 2 {
entry:
  %this.addr = alloca ptr, align 8
  %args.addr = alloca ptr, align 8
  store ptr %this, ptr %this.addr, align 8
  store ptr %args, ptr %args.addr, align 8
  ret void
}

; Function Attrs: mustprogress nounwind uwtable
define linkonce_odr void @_ZN5folly3f146detail12ObjectHolderILc72ENS_23HeterogeneousAccessHashIPN8proxygen7ServiceEvEELb1EEC2IJRKS7_EEEDpOT_(ptr noundef nonnull align 1 dereferenceable(1) %this, ptr noundef nonnull align 1 dereferenceable(1) %args) unnamed_addr #1 comdat align 2 {
entry:
  %this.addr = alloca ptr, align 8
  %args.addr = alloca ptr, align 8
  store ptr %this, ptr %this.addr, align 8
  store ptr %args, ptr %args.addr, align 8
  ret void
}

; Function Attrs: mustprogress nounwind uwtable
define linkonce_odr i64 @_ZNK5folly3f146detail11F14ItemIterIPNS1_8F14ChunkISt4pairIKPN8proxygen7ServiceEPNS5_13ServiceWorkerEEEEE4packEv(ptr noundef nonnull align 8 dereferenceable(16) %this) #1 comdat align 2 {
entry:
  %retval = alloca %"class.folly::f14::detail::PackedChunkItemPtr", align 8
  %this.addr = alloca ptr, align 8
  store ptr %this, ptr %this.addr, align 8
  %this1 = load ptr, ptr %this.addr, align 8
  %itemPtr_ = getelementptr inbounds %"class.folly::f14::detail::F14ItemIter", ptr %this1, i32 0, i32 0
  %0 = load ptr, ptr %itemPtr_, align 8
  %index_ = getelementptr inbounds %"class.folly::f14::detail::F14ItemIter", ptr %this1, i32 0, i32 1
  %1 = load i64, ptr %index_, align 8
  %conv = trunc i64 %1 to i8
  %conv2 = zext i8 %conv to i64
  call void @_ZN5folly3f146detail18PackedChunkItemPtrIPSt4pairIKPN8proxygen7ServiceEPNS4_13ServiceWorkerEEEC2ESB_m(ptr noundef nonnull align 8 dereferenceable(8) %retval, ptr noundef %0, i64 noundef %conv2) #20
  %coerce.dive = getelementptr inbounds %"class.folly::f14::detail::PackedChunkItemPtr", ptr %retval, i32 0, i32 0
  %2 = load i64, ptr %coerce.dive, align 8
  ret i64 %2
}

; Function Attrs: mustprogress nounwind uwtable
define linkonce_odr void @_ZN5folly3f146detail11F14ItemIterIPNS1_8F14ChunkISt4pairIKPN8proxygen7ServiceEPNS5_13ServiceWorkerEEEEEC2Ev(ptr noundef nonnull align 8 dereferenceable(16) %this) unnamed_addr #1 comdat align 2 {
entry:
  %this.addr = alloca ptr, align 8
  store ptr %this, ptr %this.addr, align 8
  %this1 = load ptr, ptr %this.addr, align 8
  %itemPtr_ = getelementptr inbounds %"class.folly::f14::detail::F14ItemIter", ptr %this1, i32 0, i32 0
  store ptr null, ptr %itemPtr_, align 8
  %index_ = getelementptr inbounds %"class.folly::f14::detail::F14ItemIter", ptr %this1, i32 0, i32 1
  store i64 0, ptr %index_, align 8
  ret void
}

; Function Attrs: mustprogress nounwind uwtable
define linkonce_odr void @_ZN5folly3f146detail23PackedSizeAndChunkShiftC2Ev(ptr noundef nonnull align 8 dereferenceable(8) %this) unnamed_addr #1 comdat align 2 {
entry:
  %this.addr = alloca ptr, align 8
  store ptr %this, ptr %this.addr, align 8
  %this1 = load ptr, ptr %this.addr, align 8
  %packedSizeAndChunkShift_ = getelementptr inbounds %"struct.folly::f14::detail::PackedSizeAndChunkShift", ptr %this1, i32 0, i32 0
  store i64 0, ptr %packedSizeAndChunkShift_, align 8
  ret void
}

; Function Attrs: mustprogress nounwind uwtable
define linkonce_odr void @_ZNSt15__new_allocatorISt4pairIKPN8proxygen7ServiceEPNS1_13ServiceWorkerEEED2Ev(ptr noundef nonnull align 1 dereferenceable(1) %this) unnamed_addr #1 comdat align 2 {
entry:
  %this.addr = alloca ptr, align 8
  store ptr %this, ptr %this.addr, align 8
  ret void
}

; Function Attrs: mustprogress uwtable
define linkonce_odr void @_ZN5folly3f146detail10BasePolicyIPN8proxygen7ServiceEPNS3_13ServiceWorkerEvvvSt4pairIKS5_S7_EEC2ERKNS_23HeterogeneousAccessHashIS5_vEERKNS_26HeterogeneousAccessEqualToIS5_vEERKSaISA_E(ptr noundef nonnull align 1 dereferenceable(1) %this, ptr noundef nonnull align 1 dereferenceable(1) %hasher, ptr noundef nonnull align 1 dereferenceable(1) %keyEqual, ptr noundef nonnull align 1 dereferenceable(1) %alloc) unnamed_addr #2 comdat align 2 {
entry:
  %this.addr = alloca ptr, align 8
  %hasher.addr = alloca ptr, align 8
  %keyEqual.addr = alloca ptr, align 8
  %alloc.addr = alloca ptr, align 8
  store ptr %this, ptr %this.addr, align 8
  store ptr %hasher, ptr %hasher.addr, align 8
  store ptr %keyEqual, ptr %keyEqual.addr, align 8
  store ptr %alloc, ptr %alloc.addr, align 8
  %this1 = load ptr, ptr %this.addr, align 8
  %0 = load ptr, ptr %hasher.addr, align 8
  call void @_ZN5folly3f146detail12ObjectHolderILc72ENS_23HeterogeneousAccessHashIPN8proxygen7ServiceEvEELb1EEC2IJRKS7_EEEDpOT_(ptr noundef nonnull align 1 dereferenceable(1) %this1, ptr noundef nonnull align 1 dereferenceable(1) %0)
  %1 = load ptr, ptr %keyEqual.addr, align 8
  call void @_ZN5folly3f146detail12ObjectHolderILc69ENS_26HeterogeneousAccessEqualToIPN8proxygen7ServiceEvEELb1EEC2IJRKS7_EEEDpOT_(ptr noundef nonnull align 1 dereferenceable(1) %this1, ptr noundef nonnull align 1 dereferenceable(1) %1)
  %2 = load ptr, ptr %alloc.addr, align 8
  call void @_ZN5folly3f146detail12ObjectHolderILc65ESaISt4pairIKPN8proxygen7ServiceEPNS4_13ServiceWorkerEEELb1EEC2IJRKSB_EEEDpOT_(ptr noundef nonnull align 1 dereferenceable(1) %this1, ptr noundef nonnull align 1 dereferenceable(1) %2)
  ret void
}

; Function Attrs: mustprogress nounwind uwtable
define linkonce_odr void @_ZNSt15__new_allocatorISt4pairIKPN8proxygen7ServiceEPNS1_13ServiceWorkerEEEC2Ev(ptr noundef nonnull align 1 dereferenceable(1) %this) unnamed_addr #1 comdat align 2 {
entry:
  %this.addr = alloca ptr, align 8
  store ptr %this, ptr %this.addr, align 8
  ret void
}

; Function Attrs: mustprogress nounwind uwtable
define linkonce_odr void @_ZNSt14__shared_countILN9__gnu_cxx12_Lock_policyE2EEC2Ev(ptr noundef nonnull align 8 dereferenceable(8) %this) unnamed_addr #1 comdat align 2 {
entry:
  %this.addr = alloca ptr, align 8
  store ptr %this, ptr %this.addr, align 8
  %this1 = load ptr, ptr %this.addr, align 8
  %_M_pi = getelementptr inbounds %"class.std::__shared_count", ptr %this1, i32 0, i32 0
  store ptr null, ptr %_M_pi, align 8
  ret void
}

; Function Attrs: noreturn nounwind uwtable
define linkonce_odr hidden void @__clang_call_terminate(ptr noundef %0) #4 comdat {
  %2 = call ptr @__cxa_begin_catch(ptr %0) #20
  call void @_ZSt9terminatev() #21
  unreachable
}

; Function Attrs: mustprogress uwtable
define linkonce_odr void @_ZN5folly3f146detail31SizeAndChunkShiftAndPackedBeginINS1_11F14ItemIterIPNS1_8F14ChunkISt4pairIKPN8proxygen7ServiceEPNS6_13ServiceWorkerEEEEEELb1EEC2Ev(ptr noundef nonnull align 8 dereferenceable(16) %this) unnamed_addr #2 comdat align 2 {
entry:
  %this.addr = alloca ptr, align 8
  %ref.tmp = alloca %"class.folly::f14::detail::F14ItemIter", align 8
  store ptr %this, ptr %this.addr, align 8
  %this1 = load ptr, ptr %this.addr, align 8
  %sizeAndChunkShift_ = getelementptr inbounds %"struct.folly::f14::detail::SizeAndChunkShiftAndPackedBegin", ptr %this1, i32 0, i32 0
  call void @_ZN5folly3f146detail23PackedSizeAndChunkShiftC2Ev(ptr noundef nonnull align 8 dereferenceable(8) %sizeAndChunkShift_) #20
  %packedBegin_ = getelementptr inbounds %"struct.folly::f14::detail::SizeAndChunkShiftAndPackedBegin", ptr %this1, i32 0, i32 1
  call void @_ZN5folly3f146detail11F14ItemIterIPNS1_8F14ChunkISt4pairIKPN8proxygen7ServiceEPNS5_13ServiceWorkerEEEEEC2Ev(ptr noundef nonnull align 8 dereferenceable(16) %ref.tmp) #20
  %call = call i64 @_ZNK5folly3f146detail11F14ItemIterIPNS1_8F14ChunkISt4pairIKPN8proxygen7ServiceEPNS5_13ServiceWorkerEEEEE4packEv(ptr noundef nonnull align 8 dereferenceable(16) %ref.tmp)
  %coerce.dive = getelementptr inbounds %"class.folly::f14::detail::PackedChunkItemPtr", ptr %packedBegin_, i32 0, i32 0
  store i64 %call, ptr %coerce.dive, align 8
  ret void
}

; Function Attrs: mustprogress nounwind uwtable
define linkonce_odr noundef ptr @_ZN5folly3f146detail8F14ChunkISt4pairIKPN8proxygen7ServiceEPNS4_13ServiceWorkerEEE13emptyInstanceEv() #1 comdat align 2 {
entry:
  %raw = alloca ptr, align 8
  %rv = alloca ptr, align 8
  store ptr @_ZN5folly3f146detail15kEmptyTagVectorE, ptr %raw, align 8
  %0 = load ptr, ptr %raw, align 8
  store ptr %0, ptr %rv, align 8
  br label %do.body

do.body:                                          ; preds = %entry
  br label %do.end

do.end:                                           ; preds = %do.body
  %1 = load ptr, ptr %rv, align 8
  ret ptr %1
}

; Function Attrs: mustprogress nounwind uwtable
define linkonce_odr void @_ZNSaISt4pairIKPN8proxygen7ServiceEPNS0_13ServiceWorkerEEED2Ev(ptr noundef nonnull align 1 dereferenceable(1) %this) unnamed_addr #1 comdat align 2 {
entry:
  %this.addr = alloca ptr, align 8
  store ptr %this, ptr %this.addr, align 8
  %this1 = load ptr, ptr %this.addr, align 8
  call void @_ZNSt15__new_allocatorISt4pairIKPN8proxygen7ServiceEPNS1_13ServiceWorkerEEED2Ev(ptr noundef nonnull align 1 dereferenceable(1) %this1) #20
  ret void
}

; Function Attrs: mustprogress uwtable
define linkonce_odr void @_ZN5folly3f146detail20ValueContainerPolicyIPN8proxygen7ServiceEPNS3_13ServiceWorkerEvvvECI2NS1_10BasePolicyIS5_S7_vvvSt4pairIKS5_S7_EEEERKNS_23HeterogeneousAccessHashIS5_vEERKNS_26HeterogeneousAccessEqualToIS5_vEERKSaISC_E(ptr noundef nonnull align 1 dereferenceable(1) %this, ptr noundef nonnull align 1 dereferenceable(1) %0, ptr noundef nonnull align 1 dereferenceable(1) %1, ptr noundef nonnull align 1 dereferenceable(1) %2) unnamed_addr #2 comdat align 2 {
entry:
  %this.addr = alloca ptr, align 8
  %.addr = alloca ptr, align 8
  %.addr1 = alloca ptr, align 8
  %.addr2 = alloca ptr, align 8
  store ptr %this, ptr %this.addr, align 8
  store ptr %0, ptr %.addr, align 8
  store ptr %1, ptr %.addr1, align 8
  store ptr %2, ptr %.addr2, align 8
  %this3 = load ptr, ptr %this.addr, align 8
  %3 = load ptr, ptr %.addr, align 8
  %4 = load ptr, ptr %.addr1, align 8
  %5 = load ptr, ptr %.addr2, align 8
  call void @_ZN5folly3f146detail10BasePolicyIPN8proxygen7ServiceEPNS3_13ServiceWorkerEvvvSt4pairIKS5_S7_EEC2ERKNS_23HeterogeneousAccessHashIS5_vEERKNS_26HeterogeneousAccessEqualToIS5_vEERKSaISA_E(ptr noundef nonnull align 1 dereferenceable(1) %this3, ptr noundef nonnull align 1 dereferenceable(1) %3, ptr noundef nonnull align 1 dereferenceable(1) %4, ptr noundef nonnull align 1 dereferenceable(1) %5)
  ret void
}

; Function Attrs: mustprogress nounwind uwtable
define linkonce_odr void @_ZNSaISt4pairIKPN8proxygen7ServiceEPNS0_13ServiceWorkerEEEC2Ev(ptr noundef nonnull align 1 dereferenceable(1) %this) unnamed_addr #1 comdat align 2 {
entry:
  %this.addr = alloca ptr, align 8
  store ptr %this, ptr %this.addr, align 8
  %this1 = load ptr, ptr %this.addr, align 8
  call void @_ZNSt15__new_allocatorISt4pairIKPN8proxygen7ServiceEPNS1_13ServiceWorkerEEEC2Ev(ptr noundef nonnull align 1 dereferenceable(1) %this1) #20
  ret void
}

; Function Attrs: mustprogress nounwind uwtable
define linkonce_odr void @_ZNSt12__shared_ptrIKN6wangle21LoadShedConfigurationELN9__gnu_cxx12_Lock_policyE2EEC2Ev(ptr noundef nonnull align 8 dereferenceable(16) %this) unnamed_addr #1 comdat align 2 {
entry:
  %this.addr = alloca ptr, align 8
  store ptr %this, ptr %this.addr, align 8
  %this1 = load ptr, ptr %this.addr, align 8
  %_M_ptr = getelementptr inbounds %"class.std::__shared_ptr", ptr %this1, i32 0, i32 0
  store ptr null, ptr %_M_ptr, align 8
  %_M_refcount = getelementptr inbounds %"class.std::__shared_ptr", ptr %this1, i32 0, i32 1
  call void @_ZNSt14__shared_countILN9__gnu_cxx12_Lock_policyE2EEC2Ev(ptr noundef nonnull align 8 dereferenceable(8) %_M_refcount) #20
  ret void
}

; Function Attrs: mustprogress nounwind uwtable
define linkonce_odr void @_ZN5folly3f146detail8F14TableINS1_20ValueContainerPolicyIPN8proxygen7ServiceEPNS4_13ServiceWorkerEvvvEEEC2Ev(ptr noundef nonnull align 8 dereferenceable(24) %this) unnamed_addr #1 comdat align 2 personality ptr @__gxx_personality_v0 {
entry:
  %this.addr = alloca ptr, align 8
  %ref.tmp = alloca %"struct.folly::HeterogeneousAccessHash", align 1
  %ref.tmp2 = alloca %"struct.folly::HeterogeneousAccessEqualTo", align 1
  %ref.tmp3 = alloca %"class.std::allocator", align 1
  store ptr %this, ptr %this.addr, align 8
  %this1 = load ptr, ptr %this.addr, align 8
  call void @_ZNSaISt4pairIKPN8proxygen7ServiceEPNS0_13ServiceWorkerEEEC2Ev(ptr noundef nonnull align 1 dereferenceable(1) %ref.tmp3) #20
  invoke void @_ZN5folly3f146detail20ValueContainerPolicyIPN8proxygen7ServiceEPNS3_13ServiceWorkerEvvvECI2NS1_10BasePolicyIS5_S7_vvvSt4pairIKS5_S7_EEEERKNS_23HeterogeneousAccessHashIS5_vEERKNS_26HeterogeneousAccessEqualToIS5_vEERKSaISC_E(ptr noundef nonnull align 1 dereferenceable(1) %this1, ptr noundef nonnull align 1 dereferenceable(1) %ref.tmp, ptr noundef nonnull align 1 dereferenceable(1) %ref.tmp2, ptr noundef nonnull align 1 dereferenceable(1) %ref.tmp3)
          to label %invoke.cont unwind label %terminate.lpad

invoke.cont:                                      ; preds = %entry
  call void @_ZNSaISt4pairIKPN8proxygen7ServiceEPNS0_13ServiceWorkerEEED2Ev(ptr noundef nonnull align 1 dereferenceable(1) %ref.tmp3) #20
  %chunks_ = getelementptr inbounds %"class.folly::f14::detail::F14Table", ptr %this1, i32 0, i32 0
  %call = invoke noundef ptr @_ZN5folly3f146detail8F14ChunkISt4pairIKPN8proxygen7ServiceEPNS4_13ServiceWorkerEEE13emptyInstanceEv()
          to label %invoke.cont4 unwind label %terminate.lpad

invoke.cont4:                                     ; preds = %invoke.cont
  store ptr %call, ptr %chunks_, align 8
  %sizeAndChunkShiftAndPackedBegin_ = getelementptr inbounds %"class.folly::f14::detail::F14Table", ptr %this1, i32 0, i32 1
  invoke void @_ZN5folly3f146detail31SizeAndChunkShiftAndPackedBeginINS1_11F14ItemIterIPNS1_8F14ChunkISt4pairIKPN8proxygen7ServiceEPNS6_13ServiceWorkerEEEEEELb1EEC2Ev(ptr noundef nonnull align 8 dereferenceable(16) %sizeAndChunkShiftAndPackedBegin_)
          to label %invoke.cont5 unwind label %terminate.lpad

invoke.cont5:                                     ; preds = %invoke.cont4
  ret void

terminate.lpad:                                   ; preds = %invoke.cont4, %invoke.cont, %entry
  %0 = landingpad { ptr, i32 }
          catch ptr null
  %1 = extractvalue { ptr, i32 } %0, 0
  call void @__clang_call_terminate(ptr %1) #21
  unreachable
}

; Function Attrs: mustprogress nounwind uwtable
define linkonce_odr void @_ZNSt10shared_ptrIKN6wangle21LoadShedConfigurationEEC2Ev(ptr noundef nonnull align 8 dereferenceable(16) %this) unnamed_addr #1 comdat align 2 {
entry:
  %this.addr = alloca ptr, align 8
  store ptr %this, ptr %this.addr, align 8
  %this1 = load ptr, ptr %this.addr, align 8
  call void @_ZNSt12__shared_ptrIKN6wangle21LoadShedConfigurationELN9__gnu_cxx12_Lock_policyE2EEC2Ev(ptr noundef nonnull align 8 dereferenceable(16) %this1) #20
  ret void
}

; Function Attrs: mustprogress nounwind uwtable
define linkonce_odr void @_ZN5folly3f146detail11F14BasicMapINS1_20ValueContainerPolicyIPN8proxygen7ServiceEPNS4_13ServiceWorkerEvvvEEEC2Ev(ptr noundef nonnull align 8 dereferenceable(24) %this) unnamed_addr #1 comdat align 2 {
entry:
  %this.addr = alloca ptr, align 8
  store ptr %this, ptr %this.addr, align 8
  %this1 = load ptr, ptr %this.addr, align 8
  %table_ = getelementptr inbounds %"class.folly::f14::detail::F14BasicMap", ptr %this1, i32 0, i32 0
  call void @_ZN5folly3f146detail8F14TableINS1_20ValueContainerPolicyIPN8proxygen7ServiceEPNS4_13ServiceWorkerEvvvEEEC2Ev(ptr noundef nonnull align 8 dereferenceable(24) %table_) #20
  ret void
}

; Function Attrs: mustprogress nounwind uwtable
define linkonce_odr void @_ZNSt10shared_ptrIKN6wangle21LoadShedConfigurationEEC2EDn(ptr noundef nonnull align 8 dereferenceable(16) %this, ptr %0) unnamed_addr #1 comdat align 2 {
entry:
  %this.addr = alloca ptr, align 8
  %.addr = alloca ptr, align 8
  store ptr %this, ptr %this.addr, align 8
  store ptr %0, ptr %.addr, align 8
  %this1 = load ptr, ptr %this.addr, align 8
  call void @_ZNSt10shared_ptrIKN6wangle21LoadShedConfigurationEEC2Ev(ptr noundef nonnull align 8 dereferenceable(16) %this1) #20
  ret void
}

; Function Attrs: mustprogress nounwind uwtable
define linkonce_odr void @_ZN5folly11F14ValueMapIPN8proxygen7ServiceEPNS1_13ServiceWorkerENS_23HeterogeneousAccessHashIS3_vEENS_26HeterogeneousAccessEqualToIS3_vEESaISt4pairIKS3_S5_EEEC2Ev(ptr noundef nonnull align 8 dereferenceable(24) %this) unnamed_addr #1 comdat align 2 {
entry:
  %this.addr = alloca ptr, align 8
  store ptr %this, ptr %this.addr, align 8
  %this1 = load ptr, ptr %this.addr, align 8
  call void @_ZN5folly3f146detail11F14BasicMapINS1_20ValueContainerPolicyIPN8proxygen7ServiceEPNS4_13ServiceWorkerEvvvEEEC2Ev(ptr noundef nonnull align 8 dereferenceable(24) %this1) #20
  ret void
}

; Function Attrs: mustprogress uwtable
define void @_ZN8proxygen29RequestWorkerThreadNoExecutorC2ERNS0_14FinishCallbackEhRKNSt7__cxx1112basic_stringIcSt11char_traitsIcESaIcEEE(ptr noundef nonnull align 8 dereferenceable(136) %this, ptr noundef nonnull align 8 dereferenceable(8) %callback, i8 noundef zeroext %threadId, ptr noundef nonnull align 8 dereferenceable(32) %evbName) unnamed_addr #2 align 2 {
entry:
  %this.addr = alloca ptr, align 8
  %callback.addr = alloca ptr, align 8
  %threadId.addr = alloca i8, align 1
  %evbName.addr = alloca ptr, align 8
  store ptr %this, ptr %this.addr, align 8
  store ptr %callback, ptr %callback.addr, align 8
  store i8 %threadId, ptr %threadId.addr, align 1
  store ptr %evbName, ptr %evbName.addr, align 8
  %this1 = load ptr, ptr %this.addr, align 8
  %call = call noundef ptr @_ZN5folly16EventBaseManager3getEv()
  %0 = load ptr, ptr %evbName.addr, align 8
  call void @_ZN8proxygen12WorkerThreadC2EPN5folly16EventBaseManagerERKNSt7__cxx1112basic_stringIcSt11char_traitsIcESaIcEEE(ptr noundef nonnull align 8 dereferenceable(80) %this1, ptr noundef %call, ptr noundef nonnull align 8 dereferenceable(32) %0)
  store ptr getelementptr inbounds ({ [6 x ptr] }, ptr @_ZTVN8proxygen29RequestWorkerThreadNoExecutorE, i32 0, i32 0, i32 2), ptr %this1, align 8
  %nextRequestId_ = getelementptr inbounds %"class.proxygen::RequestWorkerThreadNoExecutor", ptr %this1, i32 0, i32 1
  %1 = load i8, ptr %threadId.addr, align 1
  %conv = zext i8 %1 to i64
  %shl = shl i64 %conv, 56
  store i64 %shl, ptr %nextRequestId_, align 8
  %serviceWorkers_ = getelementptr inbounds %"class.proxygen::RequestWorkerThreadNoExecutor", ptr %this1, i32 0, i32 2
  call void @_ZN5folly11F14ValueMapIPN8proxygen7ServiceEPNS1_13ServiceWorkerENS_23HeterogeneousAccessHashIS3_vEENS_26HeterogeneousAccessEqualToIS3_vEESaISt4pairIKS3_S5_EEEC2Ev(ptr noundef nonnull align 8 dereferenceable(24) %serviceWorkers_) #20
  %loadShedConfig_ = getelementptr inbounds %"class.proxygen::RequestWorkerThreadNoExecutor", ptr %this1, i32 0, i32 3
  call void @_ZNSt10shared_ptrIKN6wangle21LoadShedConfigurationEEC2EDn(ptr noundef nonnull align 8 dereferenceable(16) %loadShedConfig_, ptr null) #20
  %callback_ = getelementptr inbounds %"class.proxygen::RequestWorkerThreadNoExecutor", ptr %this1, i32 0, i32 4
  %2 = load ptr, ptr %callback.addr, align 8
  store ptr %2, ptr %callback_, align 8
  ret void
}