; Function Attrs: mustprogress uwtable
define void @_ZN8proxygen29RequestWorkerThreadNoExecutorC2ERNS0_14FinishCallbackEhRKNSt7__cxx1112basic_stringIcSt11char_traitsIcESaIcEEE(ptr noundef nonnull align 8 dereferenceable(136) %this, ptr noundef nonnull align 8 dereferenceable(8) %callback, i8 noundef zeroext %threadId, ptr noundef nonnull align 8 dereferenceable(32) %evbName) unnamed_addr #0 align 2 personality ptr @__gxx_personality_v0 {
entry:
  %call = tail call noundef ptr @_ZN5folly16EventBaseManager3getEv()
  tail call void @_ZN8proxygen12WorkerThreadC2EPN5folly16EventBaseManagerERKNSt7__cxx1112basic_stringIcSt11char_traitsIcESaIcEEE(ptr noundef nonnull align 8 dereferenceable(80) %this, ptr noundef %call, ptr noundef nonnull align 8 dereferenceable(32) %evbName)
  store ptr getelementptr inbounds ({ [6 x ptr] }, ptr @_ZTVN8proxygen29RequestWorkerThreadNoExecutorE, i64 0, i32 0, i64 2), ptr %this, align 8
  %nextRequestId_ = getelementptr inbounds i8, ptr %this, i64 80
  %conv = zext i8 %threadId to i64
  %shl = shl nuw i64 %conv, 56
  store i64 %shl, ptr %nextRequestId_, align 8
  %serviceWorkers_ = getelementptr inbounds i8, ptr %this, i64 88
  store ptr @_ZN5folly3f146detail15kEmptyTagVectorE, ptr %serviceWorkers_, align 8
  %sizeAndChunkShiftAndPackedBegin_.i.i.i = getelementptr inbounds i8, ptr %this, i64 96
  %callback_ = getelementptr inbounds i8, ptr %this, i64 128
  tail call void @llvm.memset.p0.i64(ptr noundef nonnull align 8 dereferenceable(32) %sizeAndChunkShiftAndPackedBegin_.i.i.i, i8 0, i64 32, i1 false)
  store ptr %callback, ptr %callback_, align 8
  ret void
}